; Function Attrs: mustprogress nofree norecurse nosync nounwind willreturn memory(read, inaccessiblemem: none) uwtable
define dso_local noundef zeroext i1 @_ZN13GroupProbElem10elem_existE8ProbName(ptr noundef nonnull readonly align 8 dereferenceable(96) %0, i32 noundef %1) local_unnamed_addr #13 align 2 {
  %3 = getelementptr inbounds i8, ptr %0, i64 64
  %4 = load ptr, ptr %3, align 8
  %5 = getelementptr inbounds i8, ptr %0, i64 56
  %.not10.i.i.i = icmp eq ptr %4, null
  br i1 %.not10.i.i.i, label %_ZNSt3mapI8ProbNameP14SingleProbElemSt4lessIS0_ESaISt4pairIKS0_S2_EEE4findERS6_.exit, label %.lr.ph.i.i.i

.lr.ph.i.i.i:                                     ; preds = %2, %.lr.ph.i.i.i
  %.012.i.i.i = phi ptr [ %.1.i.i.i, %.lr.ph.i.i.i ], [ %4, %2 ]
  %.0811.i.i.i = phi ptr [ %.19.i.i.i, %.lr.ph.i.i.i ], [ %5, %2 ]
  %6 = getelementptr inbounds i8, ptr %.012.i.i.i, i64 32
  %7 = load i32, ptr %6, align 4
  %8 = icmp slt i32 %7, %1
  %.19.i.i.i = select i1 %8, ptr %.0811.i.i.i, ptr %.012.i.i.i
  %.1.in.v.i.i.i = select i1 %8, i64 24, i64 16
  %.1.in.i.i.i = getelementptr inbounds i8, ptr %.012.i.i.i, i64 %.1.in.v.i.i.i
  %.1.i.i.i = load ptr, ptr %.1.in.i.i.i, align 8
  %.not.i.i.i = icmp eq ptr %.1.i.i.i, null
  br i1 %.not.i.i.i, label %_ZNSt8_Rb_treeI8ProbNameSt4pairIKS0_P14SingleProbElemESt10_Select1stIS5_ESt4lessIS0_ESaIS5_EE14_M_lower_boundEPSt13_Rb_tree_nodeIS5_EPSt18_Rb_tree_node_baseRS2_.exit.i.i, label %.lr.ph.i.i.i, !llvm.loop !19

_ZNSt8_Rb_treeI8ProbNameSt4pairIKS0_P14SingleProbElemESt10_Select1stIS5_ESt4lessIS0_ESaIS5_EE14_M_lower_boundEPSt13_Rb_tree_nodeIS5_EPSt18_Rb_tree_node_baseRS2_.exit.i.i: ; preds = %.lr.ph.i.i.i
  %9 = icmp eq ptr %.19.i.i.i, %5
  br i1 %9, label %_ZNSt3mapI8ProbNameP14SingleProbElemSt4lessIS0_ESaISt4pairIKS0_S2_EEE4findERS6_.exit, label %10

10:                                               ; preds = %_ZNSt8_Rb_treeI8ProbNameSt4pairIKS0_P14SingleProbElemESt10_Select1stIS5_ESt4lessIS0_ESaIS5_EE14_M_lower_boundEPSt13_Rb_tree_nodeIS5_EPSt18_Rb_tree_node_baseRS2_.exit.i.i
  %11 = getelementptr inbounds i8, ptr %.19.i.i.i, i64 32
  %12 = load i32, ptr %11, align 4
  %13 = icmp sgt i32 %12, %1
  %spec.select.i.i = select i1 %13, ptr %5, ptr %.19.i.i.i
  br label %_ZNSt3mapI8ProbNameP14SingleProbElemSt4lessIS0_ESaISt4pairIKS0_S2_EEE4findERS6_.exit

_ZNSt3mapI8ProbNameP14SingleProbElemSt4lessIS0_ESaISt4pairIKS0_S2_EEE4findERS6_.exit: ; preds = %2, %_ZNSt8_Rb_treeI8ProbNameSt4pairIKS0_P14SingleProbElemESt10_Select1stIS5_ESt4lessIS0_ESaIS5_EE14_M_lower_boundEPSt13_Rb_tree_nodeIS5_EPSt18_Rb_tree_node_baseRS2_.exit.i.i, %10
  %.sroa.0.0.i.i = phi ptr [ %5, %_ZNSt8_Rb_treeI8ProbNameSt4pairIKS0_P14SingleProbElemESt10_Select1stIS5_ESt4lessIS0_ESaIS5_EE14_M_lower_boundEPSt13_Rb_tree_nodeIS5_EPSt18_Rb_tree_node_baseRS2_.exit.i.i ], [ %5, %2 ], [ %spec.select.i.i, %10 ]
  %14 = icmp ne ptr %.sroa.0.0.i.i, %5
  ret i1 %14
}